; Function Attrs: nounwind uwtable
define ptr @l_StateT_monadControl___rarg___lambda__3(ptr noundef %0, ptr noundef %1, ptr noundef %2, ptr noundef %3) #0 {
  %5 = getelementptr inbounds nuw i8, ptr %3, i64 8
  %6 = load ptr, ptr %5, align 8, !tbaa !9
  %7 = ptrtoint ptr %6 to i64
  %8 = and i64 %7, 1
  %.not = icmp eq i64 %8, 0
  br i1 %.not, label %9, label %lean_inc.exit17

9:                                                ; preds = %4
  %.val.i = load i32, ptr %6, align 4, !tbaa !4
  %10 = icmp sgt i32 %.val.i, 0
  br i1 %10, label %11, label %13, !prof !13

11:                                               ; preds = %9
  %12 = add nuw i32 %.val.i, 1
  store i32 %12, ptr %6, align 4, !tbaa !4
  br label %lean_inc.exit17

13:                                               ; preds = %9
  %.not.i18 = icmp eq i32 %.val.i, 0
  br i1 %.not.i18, label %lean_inc.exit17, label %14

14:                                               ; preds = %13
  tail call void @lean_inc_ref_cold(ptr noundef nonnull %6) #3
  br label %lean_inc.exit17

lean_inc.exit17:                                  ; preds = %14, %13, %11, %4
  %15 = getelementptr inbounds nuw i8, ptr %3, i64 16
  %16 = load ptr, ptr %15, align 8, !tbaa !9
  %17 = ptrtoint ptr %16 to i64
  %18 = and i64 %17, 1
  %.not23 = icmp eq i64 %18, 0
  br i1 %.not23, label %19, label %lean_inc.exit

19:                                               ; preds = %lean_inc.exit17
  %.val.i19 = load i32, ptr %16, align 4, !tbaa !4
  %20 = icmp sgt i32 %.val.i19, 0
  br i1 %20, label %21, label %23, !prof !13

21:                                               ; preds = %19
  %22 = add nuw i32 %.val.i19, 1
  store i32 %22, ptr %16, align 4, !tbaa !4
  br label %lean_inc.exit

23:                                               ; preds = %19
  %.not.i20 = icmp eq i32 %.val.i19, 0
  br i1 %.not.i20, label %lean_inc.exit, label %24

24:                                               ; preds = %23
  tail call void @lean_inc_ref_cold(ptr noundef nonnull %16) #3
  br label %lean_inc.exit

lean_inc.exit:                                    ; preds = %24, %23, %21, %lean_inc.exit17
  %25 = ptrtoint ptr %3 to i64
  %26 = and i64 %25, 1
  %.not24 = icmp eq i64 %26, 0
  br i1 %.not24, label %27, label %lean_dec.exit

27:                                               ; preds = %lean_inc.exit
  %28 = load i32, ptr %3, align 4, !tbaa !4
  %29 = icmp sgt i32 %28, 1
  br i1 %29, label %30, label %32, !prof !13

30:                                               ; preds = %27
  %31 = add nsw i32 %28, -1
  store i32 %31, ptr %3, align 4, !tbaa !4
  br label %lean_dec.exit

32:                                               ; preds = %27
  %.not.i = icmp eq i32 %28, 0
  br i1 %.not.i, label %lean_dec.exit, label %33

33:                                               ; preds = %32
  tail call void @lean_dec_ref_cold(ptr noundef nonnull %3) #3
  br label %lean_dec.exit

lean_dec.exit:                                    ; preds = %33, %32, %30, %lean_inc.exit
  tail call void @lean_inc_heartbeat() #3
  %34 = tail call noalias ptr @mi_malloc_small(i64 noundef 32) #3
  %35 = icmp eq ptr %34, null
  br i1 %35, label %36, label %lean_alloc_closure.exit

36:                                               ; preds = %lean_dec.exit
  tail call void @lean_internal_panic_out_of_memory() #4
  unreachable

lean_alloc_closure.exit:                          ; preds = %lean_dec.exit
  %37 = getelementptr inbounds nuw i8, ptr %34, i64 4
  store i32 1, ptr %34, align 4, !tbaa !4
  store i32 -184549344, ptr %37, align 4
  %38 = getelementptr inbounds nuw i8, ptr %34, i64 8
  store ptr @l_StateT_monadControl___rarg___lambda__1, ptr %38, align 8, !tbaa !9
  %39 = getelementptr inbounds nuw i8, ptr %34, i64 16
  store i16 3, ptr %39, align 8, !tbaa !11
  %40 = getelementptr inbounds nuw i8, ptr %34, i64 18
  store i16 1, ptr %40, align 2, !tbaa !11
  %41 = getelementptr inbounds nuw i8, ptr %34, i64 24
  store ptr %6, ptr %41, align 8, !tbaa !9
  %42 = tail call ptr @lean_apply_1(ptr noundef %0, ptr noundef nonnull %34) #3
  tail call void @lean_inc_heartbeat() #3
  %43 = tail call noalias ptr @mi_malloc_small(i64 noundef 40) #3
  %44 = icmp eq ptr %43, null
  br i1 %44, label %45, label %lean_alloc_closure.exit22

45:                                               ; preds = %lean_alloc_closure.exit
  tail call void @lean_internal_panic_out_of_memory() #4
  unreachable

lean_alloc_closure.exit22:                        ; preds = %lean_alloc_closure.exit
  %46 = getelementptr inbounds nuw i8, ptr %43, i64 4
  store i32 1, ptr %43, align 4, !tbaa !4
  store i32 -184549336, ptr %46, align 4
  %47 = getelementptr inbounds nuw i8, ptr %43, i64 8
  store ptr @l_StateT_monadControl___rarg___lambda__2, ptr %47, align 8, !tbaa !9
  %48 = getelementptr inbounds nuw i8, ptr %43, i64 16
  store i16 3, ptr %48, align 8, !tbaa !11
  %49 = getelementptr inbounds nuw i8, ptr %43, i64 18
  store i16 2, ptr %49, align 2, !tbaa !11
  %50 = getelementptr inbounds nuw i8, ptr %43, i64 24
  store ptr %16, ptr %50, align 8, !tbaa !9
  %51 = getelementptr inbounds nuw i8, ptr %43, i64 32
  store ptr %1, ptr %51, align 8, !tbaa !9
  %52 = tail call ptr @lean_apply_4(ptr noundef %2, ptr noundef nonnull inttoptr (i64 1 to ptr), ptr noundef nonnull inttoptr (i64 1 to ptr), ptr noundef %42, ptr noundef nonnull %43) #3
  ret ptr %52
}